; Function Attrs: nofree norecurse nosync nounwind memory(read, argmem: readwrite, inaccessiblemem: none) uwtable
define internal void @fweight_row8_serial(ptr noundef readonly captures(none) %0, ptr noundef writeonly captures(none) %1, ptr noundef readonly captures(none) %2, i32 noundef %3, i32 noundef %4, i32 noundef %5, i32 noundef %6, i32 noundef %7, ptr noundef readonly captures(none) %8) #6 {
  %10 = icmp sgt i32 %3, 0
  br i1 %10, label %.lr.ph101, label %._crit_edge102

.lr.ph101:                                        ; preds = %9
  %.06377 = add nsw i32 %4, -1
  %11 = icmp sgt i32 %4, 0
  %.086 = add nsw i32 %4, 1
  %12 = icmp slt i32 %.086, %5
  %wide.trip.count143 = zext nneg i32 %3 to i64
  br i1 %12, label %.lr.ph101.split.us, label %.lr.ph101.split

.lr.ph101.split.us:                               ; preds = %.lr.ph101
  br i1 %11, label %.lr.ph.us.us.preheader, label %.lr.ph92.us.preheader

.lr.ph92.us.preheader:                            ; preds = %.lr.ph101.split.us
  %13 = sext i32 %4 to i64
  %14 = add nsw i64 %13, 1
  br label %.lr.ph92.us

.lr.ph.us.us.preheader:                           ; preds = %.lr.ph101.split.us
  %narrow = add nuw i32 %4, 1
  %15 = zext i32 %narrow to i64
  br label %.lr.ph.us.us

.lr.ph.us.us:                                     ; preds = %.lr.ph.us.us.preheader, %._crit_edge93.us.us
  %indvars.iv140 = phi i64 [ 0, %.lr.ph.us.us.preheader ], [ %indvars.iv.next141, %._crit_edge93.us.us ]
  %16 = getelementptr inbounds nuw i8, ptr %0, i64 %indvars.iv140
  %17 = load i8, ptr %16, align 1, !tbaa !80
  %18 = zext i8 %17 to i32
  %19 = uitofp i8 %17 to float
  br label %20

20:                                               ; preds = %.lr.ph.us.us, %32
  %.06381.us.us = phi i32 [ %.06377, %.lr.ph.us.us ], [ %.063.us.us, %32 ]
  %.06580.us.us = phi float [ 1.000000e+00, %.lr.ph.us.us ], [ %37, %32 ]
  %.06679.us.us = phi float [ %19, %.lr.ph.us.us ], [ %36, %32 ]
  %.06878.us.us = phi i32 [ 0, %.lr.ph.us.us ], [ %29, %32 ]
  %21 = zext nneg i32 %.06381.us.us to i64
  %22 = getelementptr inbounds nuw ptr, ptr %2, i64 %21
  %23 = load ptr, ptr %22, align 8, !tbaa !52
  %24 = getelementptr inbounds nuw i8, ptr %23, i64 %indvars.iv140
  %25 = load i8, ptr %24, align 1, !tbaa !80
  %26 = zext i8 %25 to i32
  %27 = sub nsw i32 %18, %26
  %28 = tail call i32 @llvm.abs.i32(i32 %27, i1 true)
  %29 = add i32 %28, %.06878.us.us
  %30 = icmp ugt i32 %28, %6
  %31 = icmp ugt i32 %29, %7
  %or.cond.us.us = select i1 %30, i1 true, i1 %31
  br i1 %or.cond.us.us, label %.lr.ph92.us.us.preheader, label %32

32:                                               ; preds = %20
  %33 = uitofp i8 %25 to float
  %34 = getelementptr inbounds nuw float, ptr %8, i64 %21
  %35 = load float, ptr %34, align 4, !tbaa !69
  %36 = tail call nsz float @llvm.fmuladd.f32(float %33, float %35, float %.06679.us.us)
  %37 = fadd nsz float %.06580.us.us, %35
  %.063.us.us = add nsw i32 %.06381.us.us, -1
  %38 = icmp sgt i32 %.06381.us.us, 0
  br i1 %38, label %20, label %.lr.ph92.us.us.preheader, !llvm.loop !96

.lr.ph92.us.us.preheader:                         ; preds = %32, %20
  %.189.us.us.ph = phi float [ %.06580.us.us, %20 ], [ %37, %32 ]
  %.16788.us.us.ph = phi float [ %.06679.us.us, %20 ], [ %36, %32 ]
  br label %.lr.ph92.us.us

.lr.ph92.us.us:                                   ; preds = %.lr.ph92.us.us.preheader, %49
  %indvars.iv137 = phi i64 [ %indvars.iv.next138, %49 ], [ %15, %.lr.ph92.us.us.preheader ]
  %.189.us.us = phi float [ %54, %49 ], [ %.189.us.us.ph, %.lr.ph92.us.us.preheader ]
  %.16788.us.us = phi float [ %53, %49 ], [ %.16788.us.us.ph, %.lr.ph92.us.us.preheader ]
  %.06987.us.us = phi i32 [ %46, %49 ], [ 0, %.lr.ph92.us.us.preheader ]
  %39 = getelementptr inbounds nuw ptr, ptr %2, i64 %indvars.iv137
  %40 = load ptr, ptr %39, align 8, !tbaa !52
  %41 = getelementptr inbounds nuw i8, ptr %40, i64 %indvars.iv140
  %42 = load i8, ptr %41, align 1, !tbaa !80
  %43 = zext i8 %42 to i32
  %44 = sub nsw i32 %18, %43
  %45 = tail call i32 @llvm.abs.i32(i32 %44, i1 true)
  %46 = add i32 %45, %.06987.us.us
  %47 = icmp ugt i32 %45, %6
  %48 = icmp ugt i32 %46, %7
  %or.cond76.us.us = select i1 %47, i1 true, i1 %48
  br i1 %or.cond76.us.us, label %._crit_edge93.us.us, label %49

49:                                               ; preds = %.lr.ph92.us.us
  %50 = uitofp i8 %42 to float
  %51 = getelementptr inbounds nuw float, ptr %8, i64 %indvars.iv137
  %52 = load float, ptr %51, align 4, !tbaa !69
  %53 = tail call nsz float @llvm.fmuladd.f32(float %50, float %52, float %.16788.us.us)
  %54 = fadd nsz float %.189.us.us, %52
  %indvars.iv.next138 = add nuw nsw i64 %indvars.iv137, 1
  %55 = trunc nuw i64 %indvars.iv.next138 to i32
  %56 = icmp sgt i32 %5, %55
  br i1 %56, label %.lr.ph92.us.us, label %._crit_edge93.us.us, !llvm.loop !97

._crit_edge93.us.us:                              ; preds = %49, %.lr.ph92.us.us
  %.167.lcssa.us.us = phi float [ %.16788.us.us, %.lr.ph92.us.us ], [ %53, %49 ]
  %.1.lcssa.us.us = phi float [ %.189.us.us, %.lr.ph92.us.us ], [ %54, %49 ]
  %57 = fdiv nsz float %.167.lcssa.us.us, %.1.lcssa.us.us
  %58 = tail call i64 @llvm.lrint.i64.f32(float %57)
  %59 = trunc i64 %58 to i8
  %60 = getelementptr inbounds nuw i8, ptr %1, i64 %indvars.iv140
  store i8 %59, ptr %60, align 1, !tbaa !80
  %indvars.iv.next141 = add nuw nsw i64 %indvars.iv140, 1
  %exitcond144.not = icmp eq i64 %indvars.iv.next141, %wide.trip.count143
  br i1 %exitcond144.not, label %._crit_edge102, label %.lr.ph.us.us, !llvm.loop !98

.lr.ph92.us:                                      ; preds = %.lr.ph92.us.preheader, %._crit_edge93.us
  %indvars.iv132 = phi i64 [ 0, %.lr.ph92.us.preheader ], [ %indvars.iv.next133, %._crit_edge93.us ]
  %61 = getelementptr inbounds nuw i8, ptr %0, i64 %indvars.iv132
  %62 = load i8, ptr %61, align 1, !tbaa !80
  %63 = zext i8 %62 to i32
  %64 = uitofp i8 %62 to float
  br label %65

65:                                               ; preds = %.lr.ph92.us, %76
  %indvars.iv128 = phi i64 [ %14, %.lr.ph92.us ], [ %indvars.iv.next129, %76 ]
  %.189.us = phi float [ 1.000000e+00, %.lr.ph92.us ], [ %81, %76 ]
  %.16788.us = phi float [ %64, %.lr.ph92.us ], [ %80, %76 ]
  %.06987.us = phi i32 [ 0, %.lr.ph92.us ], [ %73, %76 ]
  %66 = getelementptr inbounds ptr, ptr %2, i64 %indvars.iv128
  %67 = load ptr, ptr %66, align 8, !tbaa !52
  %68 = getelementptr inbounds nuw i8, ptr %67, i64 %indvars.iv132
  %69 = load i8, ptr %68, align 1, !tbaa !80
  %70 = zext i8 %69 to i32
  %71 = sub nsw i32 %63, %70
  %72 = tail call i32 @llvm.abs.i32(i32 %71, i1 true)
  %73 = add i32 %72, %.06987.us
  %74 = icmp ugt i32 %72, %6
  %75 = icmp ugt i32 %73, %7
  %or.cond76.us = select i1 %74, i1 true, i1 %75
  br i1 %or.cond76.us, label %._crit_edge93.us, label %76

76:                                               ; preds = %65
  %77 = uitofp i8 %69 to float
  %78 = getelementptr inbounds float, ptr %8, i64 %indvars.iv128
  %79 = load float, ptr %78, align 4, !tbaa !69
  %80 = tail call nsz float @llvm.fmuladd.f32(float %77, float %79, float %.16788.us)
  %81 = fadd nsz float %.189.us, %79
  %indvars.iv.next129 = add nsw i64 %indvars.iv128, 1
  %lftr.wideiv = trunc i64 %indvars.iv.next129 to i32
  %exitcond131.not = icmp eq i32 %5, %lftr.wideiv
  br i1 %exitcond131.not, label %._crit_edge93.us, label %65, !llvm.loop !97

._crit_edge93.us:                                 ; preds = %76, %65
  %.167.lcssa.us = phi float [ %.16788.us, %65 ], [ %80, %76 ]
  %.1.lcssa.us = phi float [ %.189.us, %65 ], [ %81, %76 ]
  %82 = fdiv nsz float %.167.lcssa.us, %.1.lcssa.us
  %83 = tail call i64 @llvm.lrint.i64.f32(float %82)
  %84 = trunc i64 %83 to i8
  %85 = getelementptr inbounds nuw i8, ptr %1, i64 %indvars.iv132
  store i8 %84, ptr %85, align 1, !tbaa !80
  %indvars.iv.next133 = add nuw nsw i64 %indvars.iv132, 1
  %exitcond136.not = icmp eq i64 %indvars.iv.next133, %wide.trip.count143
  br i1 %exitcond136.not, label %._crit_edge102, label %.lr.ph92.us, !llvm.loop !98

.lr.ph101.split:                                  ; preds = %.lr.ph101
  br i1 %11, label %.lr.ph.us112, label %.lr.ph101.split.split

.lr.ph.us112:                                     ; preds = %.lr.ph101.split, %._crit_edge.us113
  %indvars.iv123 = phi i64 [ %indvars.iv.next124, %._crit_edge.us113 ], [ 0, %.lr.ph101.split ]
  %86 = getelementptr inbounds nuw i8, ptr %0, i64 %indvars.iv123
  %87 = load i8, ptr %86, align 1, !tbaa !80
  %88 = zext i8 %87 to i32
  %89 = uitofp i8 %87 to float
  br label %90

90:                                               ; preds = %.lr.ph.us112, %102
  %.06381.us104 = phi i32 [ %.06377, %.lr.ph.us112 ], [ %.063.us109, %102 ]
  %.06580.us105 = phi float [ 1.000000e+00, %.lr.ph.us112 ], [ %107, %102 ]
  %.06679.us106 = phi float [ %89, %.lr.ph.us112 ], [ %106, %102 ]
  %.06878.us107 = phi i32 [ 0, %.lr.ph.us112 ], [ %99, %102 ]
  %91 = zext nneg i32 %.06381.us104 to i64
  %92 = getelementptr inbounds nuw ptr, ptr %2, i64 %91
  %93 = load ptr, ptr %92, align 8, !tbaa !52
  %94 = getelementptr inbounds nuw i8, ptr %93, i64 %indvars.iv123
  %95 = load i8, ptr %94, align 1, !tbaa !80
  %96 = zext i8 %95 to i32
  %97 = sub nsw i32 %88, %96
  %98 = tail call i32 @llvm.abs.i32(i32 %97, i1 true)
  %99 = add i32 %98, %.06878.us107
  %100 = icmp ugt i32 %98, %6
  %101 = icmp ugt i32 %99, %7
  %or.cond.us108 = select i1 %100, i1 true, i1 %101
  br i1 %or.cond.us108, label %._crit_edge.us113, label %102

102:                                              ; preds = %90
  %103 = uitofp i8 %95 to float
  %104 = getelementptr inbounds nuw float, ptr %8, i64 %91
  %105 = load float, ptr %104, align 4, !tbaa !69
  %106 = tail call nsz float @llvm.fmuladd.f32(float %103, float %105, float %.06679.us106)
  %107 = fadd nsz float %.06580.us105, %105
  %.063.us109 = add nsw i32 %.06381.us104, -1
  %108 = icmp sgt i32 %.06381.us104, 0
  br i1 %108, label %90, label %._crit_edge.us113, !llvm.loop !96

._crit_edge.us113:                                ; preds = %102, %90
  %.066.lcssa.us110 = phi float [ %.06679.us106, %90 ], [ %106, %102 ]
  %.065.lcssa.us111 = phi float [ %.06580.us105, %90 ], [ %107, %102 ]
  %109 = fdiv nsz float %.066.lcssa.us110, %.065.lcssa.us111
  %110 = tail call i64 @llvm.lrint.i64.f32(float %109)
  %111 = trunc i64 %110 to i8
  %112 = getelementptr inbounds nuw i8, ptr %1, i64 %indvars.iv123
  store i8 %111, ptr %112, align 1, !tbaa !80
  %indvars.iv.next124 = add nuw nsw i64 %indvars.iv123, 1
  %exitcond127.not = icmp eq i64 %indvars.iv.next124, %wide.trip.count143
  br i1 %exitcond127.not, label %._crit_edge102, label %.lr.ph.us112, !llvm.loop !98

._crit_edge102:                                   ; preds = %.lr.ph101.split.split, %._crit_edge.us113, %._crit_edge93.us, %._crit_edge93.us.us, %9
  ret void

.lr.ph101.split.split:                            ; preds = %.lr.ph101.split, %.lr.ph101.split.split
  %indvars.iv = phi i64 [ %indvars.iv.next, %.lr.ph101.split.split ], [ 0, %.lr.ph101.split ]
  %113 = getelementptr inbounds nuw i8, ptr %0, i64 %indvars.iv
  %114 = load i8, ptr %113, align 1, !tbaa !80
  %115 = uitofp i8 %114 to float
  %116 = tail call i64 @llvm.lrint.i64.f32(float %115)
  %117 = trunc i64 %116 to i8
  %118 = getelementptr inbounds nuw i8, ptr %1, i64 %indvars.iv
  store i8 %117, ptr %118, align 1, !tbaa !80
  %indvars.iv.next = add nuw nsw i64 %indvars.iv, 1
  %exitcond.not = icmp eq i64 %indvars.iv.next, %wide.trip.count143
  br i1 %exitcond.not, label %._crit_edge102, label %.lr.ph101.split.split, !llvm.loop !98
}